target datalayout = "e-m:e-p270:32:32-p271:32:32-p272:64:64-i64:64-i128:128-f80:128-n8:16:32:64-S128"
target triple = "x86_64-pc-linux-gnu"

%struct.lua_State = type { %struct.GCRef, i8, i8, i8, i8, %struct.MRef, %struct.GCRef, ptr, ptr, %struct.MRef, %struct.MRef, %struct.GCRef, %struct.GCRef, ptr, i32 }
%struct.MRef = type { i64 }
%struct.GCRef = type { i64 }
%union.TValue = type { i64 }
%struct.GCstr = type { %struct.GCRef, i8, i8, i8, i8, i32, i32, i32 }
%struct.GCfuncC = type { %struct.GCRef, i8, i8, i8, i8, %struct.GCRef, %struct.GCRef, %struct.MRef, ptr, [1 x %union.TValue] }
%struct.global_State = type { ptr, ptr, %struct.GCState, %struct.GCstr, i8, i8, i8, i8, %struct.StrInternState, i32, %struct.GCRef, %struct.SBuf, %union.TValue, %union.TValue, %struct.Node, %union.TValue, %struct.GCupval, i32, i32, ptr, ptr, ptr, i32, i32, %struct.GCRef, %struct.MRef, %struct.MRef, %struct.PRNGState, [39 x %struct.GCRef] }
%struct.GCState = type { i64, i64, i8, i8, i8, i8, i32, %struct.GCRef, %struct.MRef, %struct.GCRef, %struct.GCRef, %struct.GCRef, %struct.GCRef, i64, i64, i32, i32, %struct.MRef }
%struct.StrInternState = type { ptr, i32, i32, i32, i8, i8, i8, i8, i64 }
%struct.SBuf = type { ptr, ptr, ptr, %struct.MRef }
%struct.Node = type { %union.TValue, %union.TValue, %struct.MRef }
%struct.GCupval = type { %struct.GCRef, i8, i8, i8, i8, %union.anon, %struct.MRef, i32 }
%union.anon = type { %struct.anon.1 }
%struct.anon.1 = type { %struct.GCRef, %struct.GCRef }
%struct.PRNGState = type { [4 x i64] }

@.str.3 = private unnamed_addr constant [23 x i8] c"copy of dead GC object\00", align 1
@.str.4 = private unnamed_addr constant [24 x i8] c"store to dead GC object\00", align 1
@stdout = external global ptr, align 8

; Function Attrs: alwaysinline nounwind uwtable
define internal void @setgcVraw(ptr noundef %0, ptr noundef %1, i32 noundef %2) #1 {
  %4 = alloca ptr, align 8
  %5 = alloca ptr, align 8
  %6 = alloca i32, align 4
  store ptr %0, ptr %4, align 8, !tbaa !17
  store ptr %1, ptr %5, align 8, !tbaa !27
  store i32 %2, ptr %6, align 4, !tbaa !29
  %7 = load ptr, ptr %5, align 8, !tbaa !27
  %8 = ptrtoint ptr %7 to i64
  %9 = load i32, ptr %6, align 4, !tbaa !29
  %10 = zext i32 %9 to i64
  %11 = shl i64 %10, 47
  %12 = or i64 %8, %11
  %13 = load ptr, ptr %4, align 8, !tbaa !17
  %14 = getelementptr inbounds nuw %struct.GCRef, ptr %13, i32 0, i32 0
  store i64 %12, ptr %14, align 8, !tbaa !16
  ret void
}

; Function Attrs: alwaysinline nounwind uwtable
define internal void @setgcV(ptr noundef %0, ptr noundef %1, ptr noundef %2, i32 noundef %3) #1 {
  %5 = alloca ptr, align 8
  %6 = alloca ptr, align 8
  %7 = alloca ptr, align 8
  %8 = alloca i32, align 4
  store ptr %0, ptr %5, align 8, !tbaa !4
  store ptr %1, ptr %6, align 8, !tbaa !17
  store ptr %2, ptr %7, align 8, !tbaa !27
  store i32 %3, ptr %8, align 4, !tbaa !29
  %9 = load ptr, ptr %6, align 8, !tbaa !17
  %10 = load ptr, ptr %7, align 8, !tbaa !27
  %11 = load i32, ptr %8, align 4, !tbaa !29
  call void @setgcVraw(ptr noundef %9, ptr noundef %10, i32 noundef %11)
  %12 = load ptr, ptr %5, align 8, !tbaa !4
  %13 = load ptr, ptr %6, align 8, !tbaa !17
  call void @checklivetv(ptr noundef %12, ptr noundef %13, ptr noundef @.str.4)
  ret void
}

; Function Attrs: alwaysinline nounwind uwtable
define internal void @checklivetv(ptr noundef %0, ptr noundef %1, ptr noundef %2) #1 {
  %4 = alloca ptr, align 8
  %5 = alloca ptr, align 8
  %6 = alloca ptr, align 8
  store ptr %0, ptr %4, align 8, !tbaa !4
  store ptr %1, ptr %5, align 8, !tbaa !17
  store ptr %2, ptr %6, align 8, !tbaa !25
  ret void
}

; Function Attrs: inlinehint nounwind uwtable
define available_externally i32 @putchar(i32 noundef %0) #9 {
  %2 = alloca i32, align 4
  store i32 %0, ptr %2, align 4, !tbaa !29
  %3 = load i32, ptr %2, align 4, !tbaa !29
  %4 = load ptr, ptr @stdout, align 8, !tbaa !70
  %5 = call i32 @putc(i32 noundef %3, ptr noundef %4)
  ret i32 %5
}

; Function Attrs: alwaysinline nounwind uwtable
define internal void @setstrV(ptr noundef %0, ptr noundef %1, ptr noundef %2) #1 {
  %4 = alloca ptr, align 8
  %5 = alloca ptr, align 8
  %6 = alloca ptr, align 8
  store ptr %0, ptr %4, align 8, !tbaa !4
  store ptr %1, ptr %5, align 8, !tbaa !17
  store ptr %2, ptr %6, align 8, !tbaa !30
  %7 = load ptr, ptr %4, align 8, !tbaa !4
  %8 = load ptr, ptr %5, align 8, !tbaa !17
  %9 = load ptr, ptr %6, align 8, !tbaa !30
  call void @setgcV(ptr noundef %7, ptr noundef %8, ptr noundef %9, i32 noundef -5)
  ret void
}

; Function Attrs: alwaysinline nounwind uwtable
define internal void @copyTV(ptr noundef %0, ptr noundef %1, ptr noundef %2) #1 {
  %4 = alloca ptr, align 8
  %5 = alloca ptr, align 8
  %6 = alloca ptr, align 8
  store ptr %0, ptr %4, align 8, !tbaa !4
  store ptr %1, ptr %5, align 8, !tbaa !17
  store ptr %2, ptr %6, align 8, !tbaa !17
  %7 = load ptr, ptr %5, align 8, !tbaa !17
  %8 = load ptr, ptr %6, align 8, !tbaa !17
  call void @llvm.memcpy.p0.p0.i64(ptr align 8 %7, ptr align 8 %8, i64 8, i1 false), !tbaa.struct !18
  %9 = load ptr, ptr %4, align 8, !tbaa !4
  %10 = load ptr, ptr %5, align 8, !tbaa !17
  call void @checklivetv(ptr noundef %9, ptr noundef %10, ptr noundef @.str.3)
  ret void
}

; Function Attrs: nounwind uwtable
define internal i32 @lj_cf_print(ptr noundef %0) #3 {
  %2 = alloca ptr, align 8
  %3 = alloca i64, align 8
  %4 = alloca i64, align 8
  %5 = alloca ptr, align 8
  %6 = alloca i32, align 4
  %7 = alloca ptr, align 8
  %8 = alloca ptr, align 8
  %9 = alloca i64, align 8
  %10 = alloca i32, align 4
  store ptr %0, ptr %2, align 8, !tbaa !4
  call void @llvm.lifetime.start.p0(i64 8, ptr %3) #11
  call void @llvm.lifetime.start.p0(i64 8, ptr %4) #11
  %11 = load ptr, ptr %2, align 8, !tbaa !4
  %12 = getelementptr inbounds nuw %struct.lua_State, ptr %11, i32 0, i32 8
  %13 = load ptr, ptr %12, align 8, !tbaa !9
  %14 = load ptr, ptr %2, align 8, !tbaa !4
  %15 = getelementptr inbounds nuw %struct.lua_State, ptr %14, i32 0, i32 7
  %16 = load ptr, ptr %15, align 8, !tbaa !32
  %17 = ptrtoint ptr %13 to i64
  %18 = ptrtoint ptr %16 to i64
  %19 = sub i64 %17, %18
  %20 = sdiv exact i64 %19, 8
  store i64 %20, ptr %4, align 8, !tbaa !48
  call void @llvm.lifetime.start.p0(i64 8, ptr %5) #11
  %21 = load ptr, ptr %2, align 8, !tbaa !4
  %22 = getelementptr inbounds nuw %struct.lua_State, ptr %21, i32 0, i32 12
  %23 = getelementptr inbounds nuw %struct.GCRef, ptr %22, i32 0, i32 0
  %24 = load i64, ptr %23, align 8, !tbaa !19
  %25 = inttoptr i64 %24 to ptr
  %26 = load ptr, ptr %2, align 8, !tbaa !4
  %27 = getelementptr inbounds nuw %struct.lua_State, ptr %26, i32 0, i32 7
  %28 = load ptr, ptr %27, align 8, !tbaa !32
  %29 = getelementptr inbounds %union.TValue, ptr %28, i64 -2
  %30 = getelementptr inbounds nuw %struct.GCRef, ptr %29, i32 0, i32 0
  %31 = load i64, ptr %30, align 8, !tbaa !16
  %32 = and i64 %31, 140737488355327
  %33 = inttoptr i64 %32 to ptr
  %34 = getelementptr inbounds nuw %struct.GCfuncC, ptr %33, i32 0, i32 9
  %35 = getelementptr inbounds [1 x %union.TValue], ptr %34, i64 0, i64 0
  %36 = getelementptr inbounds nuw %struct.GCRef, ptr %35, i32 0, i32 0
  %37 = load i64, ptr %36, align 8, !tbaa !16
  %38 = and i64 %37, 140737488355327
  %39 = inttoptr i64 %38 to ptr
  %40 = call ptr @lj_tab_getstr(ptr noundef %25, ptr noundef %39)
  store ptr %40, ptr %5, align 8, !tbaa !17
  call void @llvm.lifetime.start.p0(i64 4, ptr %6) #11
  %41 = load ptr, ptr %5, align 8, !tbaa !17
  %42 = icmp ne ptr %41, null
  br i1 %42, label %43, label %54

43:                                               ; preds = %1
  %44 = load ptr, ptr %5, align 8, !tbaa !17
  %45 = load i64, ptr %44, align 8, !tbaa !16
  %46 = icmp eq i64 %45, -1
  br i1 %46, label %54, label %47

47:                                               ; preds = %43
  %48 = load ptr, ptr %2, align 8, !tbaa !4
  %49 = load ptr, ptr %2, align 8, !tbaa !4
  %50 = getelementptr inbounds nuw %struct.lua_State, ptr %49, i32 0, i32 8
  %51 = load ptr, ptr %50, align 8, !tbaa !9
  %52 = getelementptr inbounds nuw %union.TValue, ptr %51, i32 1
  store ptr %52, ptr %50, align 8, !tbaa !9
  %53 = load ptr, ptr %5, align 8, !tbaa !17
  call void @copyTV(ptr noundef %48, ptr noundef %51, ptr noundef %53)
  br label %79

54:                                               ; preds = %43, %1
  %55 = load ptr, ptr %2, align 8, !tbaa !4
  %56 = load ptr, ptr %2, align 8, !tbaa !4
  %57 = getelementptr inbounds nuw %struct.lua_State, ptr %56, i32 0, i32 8
  %58 = load ptr, ptr %57, align 8, !tbaa !9
  %59 = getelementptr inbounds nuw %union.TValue, ptr %58, i32 1
  store ptr %59, ptr %57, align 8, !tbaa !9
  %60 = load ptr, ptr %2, align 8, !tbaa !4
  %61 = getelementptr inbounds nuw %struct.lua_State, ptr %60, i32 0, i32 7
  %62 = load ptr, ptr %61, align 8, !tbaa !32
  %63 = getelementptr inbounds %union.TValue, ptr %62, i64 -2
  %64 = getelementptr inbounds nuw %struct.GCRef, ptr %63, i32 0, i32 0
  %65 = load i64, ptr %64, align 8, !tbaa !16
  %66 = and i64 %65, 140737488355327
  %67 = inttoptr i64 %66 to ptr
  %68 = getelementptr inbounds nuw %struct.GCfuncC, ptr %67, i32 0, i32 9
  %69 = getelementptr inbounds [1 x %union.TValue], ptr %68, i64 0, i64 0
  %70 = getelementptr inbounds nuw %struct.GCRef, ptr %69, i32 0, i32 0
  %71 = load i64, ptr %70, align 8, !tbaa !16
  %72 = and i64 %71, 140737488355327
  %73 = inttoptr i64 %72 to ptr
  call void @setstrV(ptr noundef %55, ptr noundef %58, ptr noundef %73)
  %74 = load ptr, ptr %2, align 8, !tbaa !4
  call void @lua_gettable(ptr noundef %74, i32 noundef -10002)
  %75 = load ptr, ptr %2, align 8, !tbaa !4
  %76 = getelementptr inbounds nuw %struct.lua_State, ptr %75, i32 0, i32 8
  %77 = load ptr, ptr %76, align 8, !tbaa !9
  %78 = getelementptr inbounds %union.TValue, ptr %77, i64 -1
  store ptr %78, ptr %5, align 8, !tbaa !17
  br label %79

79:                                               ; preds = %54, %47
  %80 = load ptr, ptr %5, align 8, !tbaa !17
  %81 = load i64, ptr %80, align 8, !tbaa !16
  %82 = ashr i64 %81, 47
  %83 = trunc i64 %82 to i32
  %84 = icmp eq i32 %83, -9
  br i1 %84, label %85, label %107

85:                                               ; preds = %79
  %86 = load ptr, ptr %5, align 8, !tbaa !17
  %87 = getelementptr inbounds nuw %struct.GCRef, ptr %86, i32 0, i32 0
  %88 = load i64, ptr %87, align 8, !tbaa !16
  %89 = and i64 %88, 140737488355327
  %90 = inttoptr i64 %89 to ptr
  %91 = getelementptr inbounds nuw %struct.GCfuncC, ptr %90, i32 0, i32 3
  %92 = load i8, ptr %91, align 2, !tbaa !16
  %93 = zext i8 %92 to i32
  %94 = icmp eq i32 %93, 18
  br i1 %94, label %95, label %107

95:                                               ; preds = %85
  %96 = load ptr, ptr %2, align 8, !tbaa !4
  %97 = getelementptr inbounds nuw %struct.lua_State, ptr %96, i32 0, i32 5
  %98 = getelementptr inbounds nuw %struct.MRef, ptr %97, i32 0, i32 0
  %99 = load i64, ptr %98, align 8, !tbaa !33
  %100 = inttoptr i64 %99 to ptr
  %101 = getelementptr inbounds nuw %struct.global_State, ptr %100, i32 0, i32 28
  %102 = getelementptr inbounds nuw [39 x %struct.GCRef], ptr %101, i64 0, i64 35
  %103 = getelementptr inbounds nuw %struct.GCRef, ptr %102, i32 0, i32 0
  %104 = load i64, ptr %103, align 8, !tbaa !69
  %105 = icmp ne i64 %104, 0
  %106 = xor i1 %105, true
  br label %107

107:                                              ; preds = %95, %85, %79
  %108 = phi i1 [ false, %85 ], [ false, %79 ], [ %106, %95 ]
  %109 = zext i1 %108 to i32
  store i32 %109, ptr %6, align 4, !tbaa !29
  store i64 0, ptr %3, align 8, !tbaa !48
  br label %110

110:                                              ; preds = %171, %107
  %111 = load i64, ptr %3, align 8, !tbaa !48
  %112 = load i64, ptr %4, align 8, !tbaa !48
  %113 = icmp slt i64 %111, %112
  br i1 %113, label %114, label %174

114:                                              ; preds = %110
  call void @llvm.lifetime.start.p0(i64 8, ptr %7) #11
  %115 = load ptr, ptr %2, align 8, !tbaa !4
  %116 = getelementptr inbounds nuw %struct.lua_State, ptr %115, i32 0, i32 7
  %117 = load ptr, ptr %116, align 8, !tbaa !32
  %118 = load i64, ptr %3, align 8, !tbaa !48
  %119 = getelementptr inbounds %union.TValue, ptr %117, i64 %118
  store ptr %119, ptr %7, align 8, !tbaa !17
  call void @llvm.lifetime.start.p0(i64 8, ptr %8) #11
  call void @llvm.lifetime.start.p0(i64 8, ptr %9) #11
  call void @llvm.lifetime.start.p0(i64 4, ptr %10) #11
  %120 = load i32, ptr %6, align 4, !tbaa !29
  %121 = icmp ne i32 %120, 0
  br i1 %121, label %122, label %130

122:                                              ; preds = %114
  %123 = load ptr, ptr %2, align 8, !tbaa !4
  %124 = load ptr, ptr %7, align 8, !tbaa !17
  %125 = call ptr @lj_strfmt_wstrnum(ptr noundef %123, ptr noundef %124, ptr noundef %10)
  store ptr %125, ptr %8, align 8, !tbaa !25
  %126 = icmp ne ptr %125, null
  br i1 %126, label %127, label %130

127:                                              ; preds = %122
  %128 = load i32, ptr %10, align 4, !tbaa !29
  %129 = zext i32 %128 to i64
  store i64 %129, ptr %9, align 8, !tbaa !48
  br label %161

130:                                              ; preds = %122, %114
  %131 = load ptr, ptr %2, align 8, !tbaa !4
  %132 = load ptr, ptr %2, align 8, !tbaa !4
  %133 = getelementptr inbounds nuw %struct.lua_State, ptr %132, i32 0, i32 8
  %134 = load ptr, ptr %133, align 8, !tbaa !9
  %135 = getelementptr inbounds %union.TValue, ptr %134, i64 1
  %136 = load ptr, ptr %7, align 8, !tbaa !17
  call void @copyTV(ptr noundef %131, ptr noundef %135, ptr noundef %136)
  %137 = load ptr, ptr %2, align 8, !tbaa !4
  %138 = load ptr, ptr %2, align 8, !tbaa !4
  %139 = getelementptr inbounds nuw %struct.lua_State, ptr %138, i32 0, i32 8
  %140 = load ptr, ptr %139, align 8, !tbaa !9
  %141 = load ptr, ptr %2, align 8, !tbaa !4
  %142 = getelementptr inbounds nuw %struct.lua_State, ptr %141, i32 0, i32 8
  %143 = load ptr, ptr %142, align 8, !tbaa !9
  %144 = getelementptr inbounds %union.TValue, ptr %143, i64 -1
  call void @copyTV(ptr noundef %137, ptr noundef %140, ptr noundef %144)
  %145 = load ptr, ptr %2, align 8, !tbaa !4
  %146 = getelementptr inbounds nuw %struct.lua_State, ptr %145, i32 0, i32 8
  %147 = load ptr, ptr %146, align 8, !tbaa !9
  %148 = getelementptr inbounds %union.TValue, ptr %147, i64 2
  store ptr %148, ptr %146, align 8, !tbaa !9
  %149 = load ptr, ptr %2, align 8, !tbaa !4
  call void @lua_call(ptr noundef %149, i32 noundef 1, i32 noundef 1)
  %150 = load ptr, ptr %2, align 8, !tbaa !4
  %151 = call ptr @lua_tolstring(ptr noundef %150, i32 noundef -1, ptr noundef %9)
  store ptr %151, ptr %8, align 8, !tbaa !25
  %152 = load ptr, ptr %8, align 8, !tbaa !25
  %153 = icmp ne ptr %152, null
  br i1 %153, label %156, label %154

154:                                              ; preds = %130
  %155 = load ptr, ptr %2, align 8, !tbaa !4
  call void @lj_err_caller(ptr noundef %155, i32 noundef 1051) #10
  unreachable

156:                                              ; preds = %130
  %157 = load ptr, ptr %2, align 8, !tbaa !4
  %158 = getelementptr inbounds nuw %struct.lua_State, ptr %157, i32 0, i32 8
  %159 = load ptr, ptr %158, align 8, !tbaa !9
  %160 = getelementptr inbounds %union.TValue, ptr %159, i32 -1
  store ptr %160, ptr %158, align 8, !tbaa !9
  br label %161

161:                                              ; preds = %156, %127
  %162 = load i64, ptr %3, align 8, !tbaa !48
  %163 = icmp ne i64 %162, 0
  br i1 %163, label %164, label %166

164:                                              ; preds = %161
  %165 = call i32 @putchar(i32 noundef 9)
  br label %166

166:                                              ; preds = %164, %161
  %167 = load ptr, ptr %8, align 8, !tbaa !25
  %168 = load i64, ptr %9, align 8, !tbaa !48
  %169 = load ptr, ptr @stdout, align 8, !tbaa !70
  %170 = call i64 @fwrite(ptr noundef %167, i64 noundef 1, i64 noundef %168, ptr noundef %169)
  call void @llvm.lifetime.end.p0(i64 4, ptr %10) #11
  call void @llvm.lifetime.end.p0(i64 8, ptr %9) #11
  call void @llvm.lifetime.end.p0(i64 8, ptr %8) #11
  call void @llvm.lifetime.end.p0(i64 8, ptr %7) #11
  br label %171

171:                                              ; preds = %166
  %172 = load i64, ptr %3, align 8, !tbaa !48
  %173 = add nsw i64 %172, 1
  store i64 %173, ptr %3, align 8, !tbaa !48
  br label %110, !llvm.loop !72

174:                                              ; preds = %110
  %175 = call i32 @putchar(i32 noundef 10)
  call void @llvm.lifetime.end.p0(i64 4, ptr %6) #11
  call void @llvm.lifetime.end.p0(i64 8, ptr %5) #11
  call void @llvm.lifetime.end.p0(i64 8, ptr %4) #11
  call void @llvm.lifetime.end.p0(i64 8, ptr %3) #11
  ret i32 0
}