; Function Attrs: nounwind uwtable
define internal noundef i32 @lj_cf_print(ptr noundef %0) #2 {
  %2 = alloca i64, align 8
  %3 = alloca i32, align 4
  %4 = getelementptr inbounds nuw i8, ptr %0, i64 40
  %5 = load ptr, ptr %4, align 8, !tbaa !4
  %6 = getelementptr inbounds nuw i8, ptr %0, i64 32
  %7 = load ptr, ptr %6, align 8, !tbaa !19
  %8 = ptrtoint ptr %5 to i64
  %9 = ptrtoint ptr %7 to i64
  %10 = sub i64 %8, %9
  %11 = ashr exact i64 %10, 3
  %12 = getelementptr inbounds nuw i8, ptr %0, i64 72
  %13 = load i64, ptr %12, align 8, !tbaa !15
  %14 = inttoptr i64 %13 to ptr
  %15 = getelementptr inbounds i8, ptr %7, i64 -16
  %16 = load i64, ptr %15, align 8, !tbaa !14
  %17 = and i64 %16, 140737488355327
  %18 = inttoptr i64 %17 to ptr
  %19 = getelementptr inbounds nuw i8, ptr %18, i64 48
  %20 = load i64, ptr %19, align 8, !tbaa !14
  %21 = and i64 %20, 140737488355327
  %22 = inttoptr i64 %21 to ptr
  %23 = tail call ptr @lj_tab_getstr(ptr noundef %14, ptr noundef %22) #11
  %.not = icmp eq ptr %23, null
  br i1 %.not, label %31, label %24

24:                                               ; preds = %1
  %25 = load i64, ptr %23, align 8, !tbaa !14
  %26 = icmp eq i64 %25, -1
  br i1 %26, label %31, label %27

27:                                               ; preds = %24
  %28 = load ptr, ptr %4, align 8, !tbaa !4
  %29 = getelementptr inbounds nuw i8, ptr %28, i64 8
  store ptr %29, ptr %4, align 8, !tbaa !4
  %30 = load i64, ptr %23, align 8, !tbaa !14
  store i64 %30, ptr %28, align 8, !tbaa !14
  br label %45

31:                                               ; preds = %24, %1
  %32 = load ptr, ptr %4, align 8, !tbaa !4
  %33 = getelementptr inbounds nuw i8, ptr %32, i64 8
  store ptr %33, ptr %4, align 8, !tbaa !4
  %34 = load ptr, ptr %6, align 8, !tbaa !19
  %35 = getelementptr inbounds i8, ptr %34, i64 -16
  %36 = load i64, ptr %35, align 8, !tbaa !14
  %37 = and i64 %36, 140737488355327
  %38 = inttoptr i64 %37 to ptr
  %39 = getelementptr inbounds nuw i8, ptr %38, i64 48
  %40 = load i64, ptr %39, align 8, !tbaa !14
  %41 = and i64 %40, 140737488355327
  %42 = or disjoint i64 %41, -703687441776640
  store i64 %42, ptr %32, align 8, !tbaa !14
  tail call void @lua_gettable(ptr noundef nonnull %0, i32 noundef -10002) #11
  %43 = load ptr, ptr %4, align 8, !tbaa !4
  %44 = getelementptr inbounds i8, ptr %43, i64 -8
  %.pre = load i64, ptr %44, align 8, !tbaa !14
  br label %45

45:                                               ; preds = %31, %27
  %46 = phi i64 [ %.pre, %31 ], [ %30, %27 ]
  %.mask = and i64 %46, -140737488355328
  %47 = icmp eq i64 %.mask, -1266637395197952
  br i1 %47, label %48, label %60

48:                                               ; preds = %45
  %49 = and i64 %46, 140737488355327
  %50 = inttoptr i64 %49 to ptr
  %51 = getelementptr inbounds nuw i8, ptr %50, i64 10
  %52 = load i8, ptr %51, align 2, !tbaa !14
  %53 = icmp eq i8 %52, 18
  br i1 %53, label %54, label %60

54:                                               ; preds = %48
  %55 = getelementptr inbounds nuw i8, ptr %0, i64 16
  %56 = load i64, ptr %55, align 8, !tbaa !20
  %57 = inttoptr i64 %56 to ptr
  %58 = getelementptr inbounds nuw i8, ptr %57, i64 704
  %59 = load i64, ptr %58, align 8, !tbaa !62
  %.not43 = icmp eq i64 %59, 0
  br label %60

60:                                               ; preds = %54, %48, %45
  %61 = phi i1 [ false, %48 ], [ false, %45 ], [ %.not43, %54 ]
  %62 = icmp sgt i64 %11, 0
  br i1 %62, label %.lr.ph, label %._crit_edge

.lr.ph:                                           ; preds = %60
  br i1 %61, label %.lr.ph.split.us, label %.lr.ph.split

.lr.ph.split.us:                                  ; preds = %.lr.ph, %86
  %.03847.us = phi i64 [ %90, %86 ], [ 0, %.lr.ph ]
  %63 = load ptr, ptr %6, align 8, !tbaa !19
  %64 = getelementptr inbounds nuw %union.TValue, ptr %63, i64 %.03847.us
  call void @llvm.lifetime.start.p0(i64 8, ptr nonnull %2) #11
  call void @llvm.lifetime.start.p0(i64 4, ptr nonnull %3) #11
  %65 = call ptr @lj_strfmt_wstrnum(ptr noundef nonnull %0, ptr noundef %64, ptr noundef nonnull %3) #11
  %.not44.us = icmp eq ptr %65, null
  br i1 %.not44.us, label %69, label %66

66:                                               ; preds = %.lr.ph.split.us
  %67 = load i32, ptr %3, align 4, !tbaa !33
  %68 = zext i32 %67 to i64
  store i64 %68, ptr %2, align 8, !tbaa !63
  br label %82

69:                                               ; preds = %.lr.ph.split.us
  %70 = load ptr, ptr %4, align 8, !tbaa !4
  %71 = getelementptr inbounds nuw i8, ptr %70, i64 8
  %72 = load i64, ptr %64, align 8, !tbaa !14
  store i64 %72, ptr %71, align 8, !tbaa !14
  %73 = load ptr, ptr %4, align 8, !tbaa !4
  %74 = getelementptr inbounds i8, ptr %73, i64 -8
  %75 = load i64, ptr %74, align 8, !tbaa !14
  store i64 %75, ptr %73, align 8, !tbaa !14
  %76 = load ptr, ptr %4, align 8, !tbaa !4
  %77 = getelementptr inbounds nuw i8, ptr %76, i64 16
  store ptr %77, ptr %4, align 8, !tbaa !4
  call void @lua_call(ptr noundef nonnull %0, i32 noundef 1, i32 noundef 1) #11
  %78 = call ptr @lua_tolstring(ptr noundef nonnull %0, i32 noundef -1, ptr noundef nonnull %2) #11
  %.not45.us = icmp eq ptr %78, null
  br i1 %.not45.us, label %.split.us, label %79

79:                                               ; preds = %69
  %80 = load ptr, ptr %4, align 8, !tbaa !4
  %81 = getelementptr inbounds i8, ptr %80, i64 -8
  store ptr %81, ptr %4, align 8, !tbaa !4
  br label %82

82:                                               ; preds = %79, %66
  %.0.us = phi ptr [ %65, %66 ], [ %78, %79 ]
  %.not46.us = icmp eq i64 %.03847.us, 0
  br i1 %.not46.us, label %86, label %83

83:                                               ; preds = %82
  %84 = load ptr, ptr @stdout, align 8, !tbaa !64
  %85 = call i32 @putc(i32 noundef 9, ptr noundef %84)
  br label %86

86:                                               ; preds = %83, %82
  %87 = load i64, ptr %2, align 8, !tbaa !63
  %88 = load ptr, ptr @stdout, align 8, !tbaa !64
  %89 = call i64 @fwrite(ptr noundef nonnull %.0.us, i64 noundef 1, i64 noundef %87, ptr noundef %88)
  call void @llvm.lifetime.end.p0(i64 4, ptr nonnull %3) #11
  call void @llvm.lifetime.end.p0(i64 8, ptr nonnull %2) #11
  %90 = add nuw nsw i64 %.03847.us, 1
  %exitcond50.not = icmp eq i64 %90, %11
  br i1 %exitcond50.not, label %._crit_edge, label %.lr.ph.split.us, !llvm.loop !66

.lr.ph.split:                                     ; preds = %.lr.ph, %108
  %.03847 = phi i64 [ %112, %108 ], [ 0, %.lr.ph ]
  %91 = load ptr, ptr %6, align 8, !tbaa !19
  %92 = getelementptr inbounds nuw %union.TValue, ptr %91, i64 %.03847
  call void @llvm.lifetime.start.p0(i64 8, ptr nonnull %2) #11
  call void @llvm.lifetime.start.p0(i64 4, ptr nonnull %3) #11
  %93 = load ptr, ptr %4, align 8, !tbaa !4
  %94 = getelementptr inbounds nuw i8, ptr %93, i64 8
  %95 = load i64, ptr %92, align 8, !tbaa !14
  store i64 %95, ptr %94, align 8, !tbaa !14
  %96 = load ptr, ptr %4, align 8, !tbaa !4
  %97 = getelementptr inbounds i8, ptr %96, i64 -8
  %98 = load i64, ptr %97, align 8, !tbaa !14
  store i64 %98, ptr %96, align 8, !tbaa !14
  %99 = load ptr, ptr %4, align 8, !tbaa !4
  %100 = getelementptr inbounds nuw i8, ptr %99, i64 16
  store ptr %100, ptr %4, align 8, !tbaa !4
  call void @lua_call(ptr noundef nonnull %0, i32 noundef 1, i32 noundef 1) #11
  %101 = call ptr @lua_tolstring(ptr noundef nonnull %0, i32 noundef -1, ptr noundef nonnull %2) #11
  %.not45 = icmp eq ptr %101, null
  br i1 %.not45, label %.split.us, label %102

.split.us:                                        ; preds = %.lr.ph.split, %69
  call void @lj_err_caller(ptr noundef nonnull %0, i32 noundef 1051) #10
  unreachable

102:                                              ; preds = %.lr.ph.split
  %103 = load ptr, ptr %4, align 8, !tbaa !4
  %104 = getelementptr inbounds i8, ptr %103, i64 -8
  store ptr %104, ptr %4, align 8, !tbaa !4
  %.not46 = icmp eq i64 %.03847, 0
  br i1 %.not46, label %108, label %105

105:                                              ; preds = %102
  %106 = load ptr, ptr @stdout, align 8, !tbaa !64
  %107 = call i32 @putc(i32 noundef 9, ptr noundef %106)
  br label %108

108:                                              ; preds = %105, %102
  %109 = load i64, ptr %2, align 8, !tbaa !63
  %110 = load ptr, ptr @stdout, align 8, !tbaa !64
  %111 = call i64 @fwrite(ptr noundef nonnull %101, i64 noundef 1, i64 noundef %109, ptr noundef %110)
  call void @llvm.lifetime.end.p0(i64 4, ptr nonnull %3) #11
  call void @llvm.lifetime.end.p0(i64 8, ptr nonnull %2) #11
  %112 = add nuw nsw i64 %.03847, 1
  %exitcond.not = icmp eq i64 %112, %11
  br i1 %exitcond.not, label %._crit_edge, label %.lr.ph.split, !llvm.loop !66

._crit_edge:                                      ; preds = %108, %86, %60
  %113 = load ptr, ptr @stdout, align 8, !tbaa !64
  %114 = call i32 @putc(i32 noundef 10, ptr noundef %113)
  ret i32 0
}